; Function Attrs: mustprogress uwtable
define noundef zeroext i1 @_ZNK32pxrInternal_v0_24__pxrReserved__7UsdPrim10HasPayloadEv(ptr nocapture noundef nonnull readonly align 8 dereferenceable(32) %0) local_unnamed_addr #0 align 2 {
  %2 = getelementptr inbounds nuw i8, ptr %0, i64 8
  %3 = load ptr, ptr %2, align 8
  %.not.i.i = icmp eq ptr %3, null
  br i1 %.not.i.i, label %8, label %4

4:                                                ; preds = %1
  %5 = getelementptr inbounds nuw i8, ptr %3, i64 56
  %6 = load i64, ptr %5, align 8
  %7 = and i64 %6, 2048
  %.not5.i.i = icmp eq i64 %7, 0
  br i1 %.not5.i.i, label %_ZNK32pxrInternal_v0_24__pxrReserved__7UsdPrim19HasAuthoredPayloadsEv.exit, label %8

8:                                                ; preds = %4, %1
  tail call void @_ZN32pxrInternal_v0_24__pxrReserved__31Usd_ThrowExpiredPrimAccessErrorEPKNS_12Usd_PrimDataE(ptr noundef %3)
  %.phi.trans.insert.i = getelementptr inbounds nuw i8, ptr %3, i64 56
  %.pre.i = load i64, ptr %.phi.trans.insert.i, align 8
  br label %_ZNK32pxrInternal_v0_24__pxrReserved__7UsdPrim19HasAuthoredPayloadsEv.exit

_ZNK32pxrInternal_v0_24__pxrReserved__7UsdPrim19HasAuthoredPayloadsEv.exit: ; preds = %4, %8
  %9 = phi i64 [ %6, %4 ], [ %.pre.i, %8 ]
  %10 = and i64 %9, 512
  %11 = icmp ne i64 %10, 0
  ret i1 %11
}